; Function Attrs: null_pointer_is_valid sspstrong uwtable
define i32 @json_parse(ptr noundef %0, ptr noundef %1, i32 noundef %2) local_unnamed_addr #0 {
  %4 = alloca %struct.jsmn_parser, align 4
  call void @llvm.lifetime.start.p0(i64 12, ptr nonnull %4) #10
  call void @jsmn_init(ptr noundef nonnull %4)
  %5 = call i64 @strlen(ptr noundef %0) #12
  %6 = call i32 @jsmn_parse(ptr noundef nonnull %4, ptr noundef %0, i64 noundef %5, ptr noundef %1, i32 noundef %2)
  call void @llvm.lifetime.end.p0(i64 12, ptr nonnull %4) #10
  ret i32 %6
}